target datalayout = "e-m:e-p270:32:32-p271:32:32-p272:64:64-i64:64-i128:128-f80:128-n8:16:32:64-S128"
target triple = "x86_64-pc-linux-gnu"

%struct._psqlSettings = type { ptr, i32, ptr, i8, ptr, ptr, %struct.printQueryOpt, ptr, ptr, ptr, i8, i8, i32, i32, ptr, ptr, i8, [4 x ptr], i8, i32, ptr, i8, i32, ptr, ptr, i64, i64, i8, ptr, ptr, ptr, i8, i8, i8, i8, i8, i8, i8, i32, i32, i32, i32, i32, i32, i32, i32, ptr, ptr, ptr, i32, i8, i32 }
%struct.printQueryOpt = type { %struct.printTableOpt, ptr, ptr, ptr, i8, ptr, i32 }
%struct.printTableOpt = type { i32, i16, i32, i32, i16, i16, i32, i8, i8, i8, i8, i64, ptr, %struct.separator, %struct.separator, [2 x i8], i8, ptr, i32, i32, i32, i32, i32, i32 }
%struct.separator = type { ptr, i8 }
%struct.PQExpBufferData = type { ptr, i64, i64 }

@pset = external global %struct._psqlSettings, align 8
@.str.18 = private unnamed_addr constant [5 x i8] c"Type\00", align 1
@.str.23 = private unnamed_addr constant [12 x i8] c"ORDER BY 1;\00", align 1
@.str.167 = private unnamed_addr constant [18 x i8] c"Access privileges\00", align 1
@.str.355 = private unnamed_addr constant [66 x i8] c"SELECT s.name AS \22%s\22, pg_catalog.current_setting(s.name) AS \22%s\22\00", align 1
@.str.356 = private unnamed_addr constant [10 x i8] c"Parameter\00", align 1
@.str.357 = private unnamed_addr constant [6 x i8] c"Value\00", align 1
@.str.358 = private unnamed_addr constant [41 x i8] c", s.vartype AS \22%s\22, s.context AS \22%s\22, \00", align 1
@.str.359 = private unnamed_addr constant [8 x i8] c"Context\00", align 1
@.str.360 = private unnamed_addr constant [9 x i8] c"p.paracl\00", align 1
@.str.361 = private unnamed_addr constant [13 x i8] c"NULL AS \22%s\22\00", align 1
@.str.362 = private unnamed_addr constant [32 x i8] c"\0AFROM pg_catalog.pg_settings s\0A\00", align 1
@.str.363 = private unnamed_addr constant [85 x i8] c"  LEFT JOIN pg_catalog.pg_parameter_acl p\0A  ON pg_catalog.lower(s.name) = p.parname\0A\00", align 1
@.str.364 = private unnamed_addr constant [25 x i8] c"pg_catalog.lower(s.name)\00", align 1
@.str.365 = private unnamed_addr constant [77 x i8] c"WHERE s.source <> 'default' AND\0A      s.setting IS DISTINCT FROM s.boot_val\0A\00", align 1
@.str.366 = private unnamed_addr constant [33 x i8] c"List of configuration parameters\00", align 1
@.str.367 = private unnamed_addr constant [45 x i8] c"List of non-default configuration parameters\00", align 1
@.str.916 = private unnamed_addr constant [110 x i8] c"CASE WHEN pg_catalog.array_length(%s, 1) = 0 THEN '%s' ELSE pg_catalog.array_to_string(%s, E'\\n') END AS \22%s\22\00", align 1
@.str.917 = private unnamed_addr constant [7 x i8] c"(none)\00", align 1

; Function Attrs: nounwind uwtable
define internal void @printACLColumn(ptr noundef %0, ptr noundef %1) #0 {
  %3 = alloca ptr, align 8
  %4 = alloca ptr, align 8
  store ptr %0, ptr %3, align 8
  store ptr %1, ptr %4, align 8
  %5 = load ptr, ptr %3, align 8
  %6 = load ptr, ptr %4, align 8
  %7 = load ptr, ptr %4, align 8
  call void (ptr, ptr, ...) @appendPQExpBuffer(ptr noundef %5, ptr noundef @.str.916, ptr noundef %6, ptr noundef @.str.917, ptr noundef %7, ptr noundef @.str.167)
  ret void
}

; Function Attrs: nounwind uwtable
define dso_local zeroext i1 @describeConfigurationParameters(ptr noundef %0, i1 noundef zeroext %1, i1 noundef zeroext %2) #0 {
  %4 = alloca i1, align 1
  %5 = alloca ptr, align 8
  %6 = alloca i8, align 1
  %7 = alloca i8, align 1
  %8 = alloca %struct.PQExpBufferData, align 8
  %9 = alloca ptr, align 8
  %10 = alloca %struct.printQueryOpt, align 8
  %11 = alloca i32, align 4
  store ptr %0, ptr %5, align 8
  %12 = zext i1 %1 to i8
  store i8 %12, ptr %6, align 1
  %13 = zext i1 %2 to i8
  store i8 %13, ptr %7, align 1
  call void @llvm.lifetime.start.p0(i64 24, ptr %8) #8
  call void @llvm.lifetime.start.p0(i64 8, ptr %9) #8
  call void @llvm.lifetime.start.p0(i64 168, ptr %10) #8
  call void @llvm.memcpy.p0.p0.i64(ptr align 8 %10, ptr align 8 getelementptr inbounds nuw (%struct._psqlSettings, ptr @pset, i32 0, i32 6), i64 168, i1 false)
  call void @initPQExpBuffer(ptr noundef %8)
  call void (ptr, ptr, ...) @printfPQExpBuffer(ptr noundef %8, ptr noundef @.str.355, ptr noundef @.str.356, ptr noundef @.str.357)
  %14 = load i8, ptr %6, align 1, !range !4, !noundef !5
  %15 = trunc i8 %14 to i1
  br i1 %15, label %16, label %22

16:                                               ; preds = %3
  call void (ptr, ptr, ...) @appendPQExpBuffer(ptr noundef %8, ptr noundef @.str.358, ptr noundef @.str.18, ptr noundef @.str.359)
  %17 = load i32, ptr getelementptr inbounds nuw (%struct._psqlSettings, ptr @pset, i32 0, i32 22), align 4
  %18 = icmp sge i32 %17, 150000
  br i1 %18, label %19, label %20

19:                                               ; preds = %16
  call void @printACLColumn(ptr noundef %8, ptr noundef @.str.360)
  br label %21

20:                                               ; preds = %16
  call void (ptr, ptr, ...) @appendPQExpBuffer(ptr noundef %8, ptr noundef @.str.361, ptr noundef @.str.167)
  br label %21

21:                                               ; preds = %20, %19
  br label %22

22:                                               ; preds = %21, %3
  call void @appendPQExpBufferStr(ptr noundef %8, ptr noundef @.str.362)
  %23 = load i8, ptr %6, align 1, !range !4, !noundef !5
  %24 = trunc i8 %23 to i1
  br i1 %24, label %25, label %29

25:                                               ; preds = %22
  %26 = load i32, ptr getelementptr inbounds nuw (%struct._psqlSettings, ptr @pset, i32 0, i32 22), align 4
  %27 = icmp sge i32 %26, 150000
  br i1 %27, label %28, label %29

28:                                               ; preds = %25
  call void @appendPQExpBufferStr(ptr noundef %8, ptr noundef @.str.363)
  br label %29

29:                                               ; preds = %28, %25, %22
  %30 = load ptr, ptr %5, align 8
  %31 = icmp ne ptr %30, null
  br i1 %31, label %32, label %36

32:                                               ; preds = %29
  %33 = load ptr, ptr @pset, align 8
  %34 = load ptr, ptr %5, align 8
  %35 = call zeroext i1 @processSQLNamePattern(ptr noundef %33, ptr noundef %8, ptr noundef %34, i1 noundef zeroext false, i1 noundef zeroext false, ptr noundef null, ptr noundef @.str.364, ptr noundef null, ptr noundef null, ptr noundef null, ptr noundef null)
  br label %37

36:                                               ; preds = %29
  call void @appendPQExpBufferStr(ptr noundef %8, ptr noundef @.str.365)
  br label %37

37:                                               ; preds = %36, %32
  call void @appendPQExpBufferStr(ptr noundef %8, ptr noundef @.str.23)
  %38 = getelementptr inbounds nuw %struct.PQExpBufferData, ptr %8, i32 0, i32 0
  %39 = load ptr, ptr %38, align 8
  %40 = call ptr @PSQLexec(ptr noundef %39)
  store ptr %40, ptr %9, align 8
  call void @termPQExpBuffer(ptr noundef %8)
  %41 = load ptr, ptr %9, align 8
  %42 = icmp ne ptr %41, null
  br i1 %42, label %44, label %43

43:                                               ; preds = %37
  store i1 false, ptr %4, align 1
  store i32 1, ptr %11, align 4
  br label %57

44:                                               ; preds = %37
  %45 = load ptr, ptr %5, align 8
  %46 = icmp ne ptr %45, null
  br i1 %46, label %47, label %49

47:                                               ; preds = %44
  %48 = getelementptr inbounds nuw %struct.printQueryOpt, ptr %10, i32 0, i32 2
  store ptr @.str.366, ptr %48, align 8
  br label %51

49:                                               ; preds = %44
  %50 = getelementptr inbounds nuw %struct.printQueryOpt, ptr %10, i32 0, i32 2
  store ptr @.str.367, ptr %50, align 8
  br label %51

51:                                               ; preds = %49, %47
  %52 = getelementptr inbounds nuw %struct.printQueryOpt, ptr %10, i32 0, i32 4
  store i8 1, ptr %52, align 8
  %53 = load ptr, ptr %9, align 8
  %54 = load ptr, ptr getelementptr inbounds nuw (%struct._psqlSettings, ptr @pset, i32 0, i32 2), align 8
  %55 = load ptr, ptr getelementptr inbounds nuw (%struct._psqlSettings, ptr @pset, i32 0, i32 28), align 8
  call void @printQuery(ptr noundef %53, ptr noundef %10, ptr noundef %54, i1 noundef zeroext false, ptr noundef %55)
  %56 = load ptr, ptr %9, align 8
  call void @PQclear(ptr noundef %56)
  store i1 true, ptr %4, align 1
  store i32 1, ptr %11, align 4
  br label %57

57:                                               ; preds = %51, %43
  call void @llvm.lifetime.end.p0(i64 168, ptr %10) #8
  call void @llvm.lifetime.end.p0(i64 8, ptr %9) #8
  call void @llvm.lifetime.end.p0(i64 24, ptr %8) #8
  %58 = load i1, ptr %4, align 1
  ret i1 %58
}