; Function Attrs: nounwind uwtable
define dso_local noundef zeroext i1 @describeConfigurationParameters(ptr noundef %0, i1 noundef zeroext %1, i1 noundef zeroext %2) local_unnamed_addr #0 {
  %4 = alloca %struct.PQExpBufferData, align 8
  %5 = alloca %struct.printQueryOpt, align 8
  call void @llvm.lifetime.start.p0(i64 24, ptr nonnull %4) #8
  call void @llvm.lifetime.start.p0(i64 168, ptr nonnull %5) #8
  call void @llvm.memcpy.p0.p0.i64(ptr noundef nonnull align 8 dereferenceable(168) %5, ptr noundef nonnull align 8 dereferenceable(168) getelementptr inbounds nuw (i8, ptr @pset, i64 48), i64 168, i1 false)
  call void @initPQExpBuffer(ptr noundef nonnull %4) #8
  call void (ptr, ptr, ...) @printfPQExpBuffer(ptr noundef nonnull %4, ptr noundef nonnull @.str.355, ptr noundef nonnull @.str.356, ptr noundef nonnull @.str.357) #8
  br i1 %1, label %6, label %11

6:                                                ; preds = %3
  call void (ptr, ptr, ...) @appendPQExpBuffer(ptr noundef nonnull %4, ptr noundef nonnull @.str.358, ptr noundef nonnull @.str.18, ptr noundef nonnull @.str.359) #8
  %7 = load i32, ptr getelementptr inbounds nuw (i8, ptr @pset, i64 332), align 4
  %8 = icmp sgt i32 %7, 149999
  br i1 %8, label %9, label %10

9:                                                ; preds = %6
  call void (ptr, ptr, ...) @appendPQExpBuffer(ptr noundef nonnull %4, ptr noundef nonnull @.str.916, ptr noundef nonnull @.str.360, ptr noundef nonnull @.str.917, ptr noundef nonnull @.str.360, ptr noundef nonnull @.str.167) #8
  br label %11

10:                                               ; preds = %6
  call void (ptr, ptr, ...) @appendPQExpBuffer(ptr noundef nonnull %4, ptr noundef nonnull @.str.361, ptr noundef nonnull @.str.167) #8
  br label %11

11:                                               ; preds = %9, %10, %3
  call void @appendPQExpBufferStr(ptr noundef nonnull %4, ptr noundef nonnull @.str.362) #8
  %12 = load i32, ptr getelementptr inbounds nuw (i8, ptr @pset, i64 332), align 4
  %13 = icmp sgt i32 %12, 149999
  %or.cond = select i1 %1, i1 %13, i1 false
  br i1 %or.cond, label %14, label %15

14:                                               ; preds = %11
  call void @appendPQExpBufferStr(ptr noundef nonnull %4, ptr noundef nonnull @.str.363) #8
  br label %15

15:                                               ; preds = %14, %11
  %.not = icmp eq ptr %0, null
  br i1 %.not, label %19, label %16

16:                                               ; preds = %15
  %17 = load ptr, ptr @pset, align 8
  %18 = call zeroext i1 @processSQLNamePattern(ptr noundef %17, ptr noundef nonnull %4, ptr noundef nonnull %0, i1 noundef zeroext false, i1 noundef zeroext false, ptr noundef null, ptr noundef nonnull @.str.364, ptr noundef null, ptr noundef null, ptr noundef null, ptr noundef null) #8
  br label %20

19:                                               ; preds = %15
  call void @appendPQExpBufferStr(ptr noundef nonnull %4, ptr noundef nonnull @.str.365) #8
  br label %20

20:                                               ; preds = %19, %16
  call void @appendPQExpBufferStr(ptr noundef nonnull %4, ptr noundef nonnull @.str.23) #8
  %21 = load ptr, ptr %4, align 8
  %22 = call ptr @PSQLexec(ptr noundef %21) #8
  call void @termPQExpBuffer(ptr noundef nonnull %4) #8
  %.not11 = icmp ne ptr %22, null
  br i1 %.not11, label %23, label %28

23:                                               ; preds = %20
  %spec.select = select i1 %.not, ptr @.str.367, ptr @.str.366
  %24 = getelementptr inbounds nuw i8, ptr %5, i64 128
  store ptr %spec.select, ptr %24, align 8
  %25 = getelementptr inbounds nuw i8, ptr %5, i64 144
  store i8 1, ptr %25, align 8
  %26 = load ptr, ptr getelementptr inbounds nuw (i8, ptr @pset, i64 16), align 8
  %27 = load ptr, ptr getelementptr inbounds nuw (i8, ptr @pset, i64 376), align 8
  call void @printQuery(ptr noundef nonnull %22, ptr noundef nonnull %5, ptr noundef %26, i1 noundef zeroext false, ptr noundef %27) #8
  call void @PQclear(ptr noundef nonnull %22) #8
  br label %28

28:                                               ; preds = %20, %23
  call void @llvm.lifetime.end.p0(i64 168, ptr nonnull %5) #8
  call void @llvm.lifetime.end.p0(i64 24, ptr nonnull %4) #8
  ret i1 %.not11
}